Certificate:
    Data:
        Version: 3 (0x2)
        Serial Number: 1 (0x1)
    Signature Algorithm: sha256WithRSAEncryption
        Issuer: CN=QUIC Server Root CA
        Validity
            Not Before: May 31 03:55:19 2020 GMT
            Not After : Jun  3 03:55:19 2020 GMT
        Subject: C=US, ST=California, L=Mountain View, O=QUIC Server, CN=127.0.0.1
        Subject Public Key Info:
            Public Key Algorithm: rsaEncryption
                Public-Key: (2048 bit)
                Modulus:
                    00:ad:fa:db:3d:10:f3:39:39:50:a6:19:89:4b:f1:
                    eb:e7:69:07:b7:0c:9b:bb:88:33:7a:b6:98:b0:06:
                    12:da:c9:a5:57:f1:bb:c2:63:e1:52:74:e6:4d:0e:
                    3d:c9:4c:60:b0:5c:01:ba:b6:a6:14:ac:c3:b3:5d:
                    6b:b3:c9:a8:ad:16:9e:66:98:ce:be:c5:98:22:73:
                    2a:69:4b:f5:53:83:da:53:5e:01:1c:d9:7e:13:77:
                    0a:ab:50:71:17:0d:fd:7f:42:3c:9d:01:a9:52:5b:
                    a2:a2:01:0e:7c:45:b8:b7:0c:18:d9:86:b0:9d:b1:
                    5f:19:f3:00:9a:32:77:e1:c4:58:9c:fe:6b:a8:49:
                    ea:a4:b9:40:76:65:71:e3:3c:29:60:39:fa:36:ef:
                    5d:ab:99:83:c7:4c:82:7b:06:f0:2c:a6:e2:32:e1:
                    74:63:c8:5c:06:7c:2c:2a:d3:91:01:8e:22:df:ad:
                    e5:2d:39:29:eb:44:b8:21:dc:78:e8:0d:6b:4d:82:
                    df:fa:df:95:e9:26:fc:c2:58:01:d4:63:ac:4c:b4:
                    b3:49:a8:2f:cd:13:04:6b:6b:ac:ef:ea:94:37:2f:
                    4e:fb:07:45:d1:21:43:1b:cc:d3:67:eb:f1:d1:f4:
                    77:f0:64:6e:bb:7d:d0:32:e2:84:c5:de:93:19:e2:
                    88:fb
                Exponent: 65537 (0x10001)
        X509v3 extensions:
            X509v3 Basic Constraints: critical
                CA:FALSE
            X509v3 Subject Key Identifier: 
                A4:CE:80:7A:88:5E:1B:E3:57:86:16:B1:88:15:FF:BA:7A:15:68:BB
            X509v3 Authority Key Identifier: 
                keyid:1D:00:C8:09:B6:39:2F:1D:BF:07:2C:B6:88:E4:C1:45:82:94:2F:B7

            X509v3 Extended Key Usage: 
                TLS Web Server Authentication, TLS Web Client Authentication
            X509v3 Subject Alternative Name: 
                DNS:www.example.org, DNS:mail.example.org, DNS:mail.example.com, IP Address:127.0.0.1
    Signature Algorithm: sha256WithRSAEncryption
         78:cf:b6:81:11:7f:6a:31:e9:6b:6d:1b:de:29:50:94:49:85:
         37:18:2e:e8:e4:0c:98:84:93:ae:3d:51:70:67:a0:e3:7c:70:
         3f:c6:51:14:70:78:d8:70:b3:a8:9f:be:19:d0:49:c3:7e:7e:
         13:f4:55:a3:8f:16:f4:b7:95:9d:06:1e:e7:d0:f2:f7:2f:2f:
         b6:b3:da:a4:7d:44:a1:9a:14:2b:40:5f:52:d3:b8:bd:a3:9f:
         c2:dd:a4:e7:13:31:6f:d5:f4:a5:47:d0:83:98:86:d9:82:e0:
         6a:e1:38:fa:47:a6:3e:36:75:1f:6c:77:b7:d4:95:41:01:22:
         78:01:4c:d1:5f:d9:77:b0:fa:7e:81:2c:61:f1:64:fb:32:ea:
         01:b2:29:53:86:cd:66:99:0f:26:57:64:ff:75:fc:41:c8:8a:
         01:79:fc:75:4b:b0:4b:05:18:b7:87:eb:da:32:d9:a5:f7:e7:
         3c:03:3b:2e:e4:c6:8c:48:dc:56:8e:5b:63:d2:17:4d:4e:70:
         ff:09:72:2e:2f:99:87:05:2e:44:49:88:f5:8c:d8:45:33:7a:
         a1:1c:5d:f1:73:9f:f8:6b:6c:b5:5c:33:65:96:5a:c9:7b:cc:
         5a:07:59:85:50:88:cd:77:c1:a0:be:0e:97:90:d1:86:f2:78:
         5f:f7:0b:66
-----BEGIN CERTIFICATE-----
MIIDtDCCApygAwIBAgIBATANBgkqhkiG9w0BAQsFADAeMRwwGgYDVQQDDBNRVUlD
IFNlcnZlciBSb290IENBMB4XDTIwMDUzMTAzNTUxOVoXDTIwMDYwMzAzNTUxOVow
ZDELMAkGA1UEBhMCVVMxEzARBgNVBAgMCkNhbGlmb3JuaWExFjAUBgNVBAcMDU1v
dW50YWluIFZpZXcxFDASBgNVBAoMC1FVSUMgU2VydmVyMRIwEAYDVQQDDAkxMjcu
MC4wLjEwggEiMA0GCSqGSIb3DQEBAQUAA4IBDwAwggEKAoIBAQCt+ts9EPM5OVCm
GYlL8evnaQe3DJu7iDN6tpiwBhLayaVX8bvCY+FSdOZNDj3JTGCwXAG6tqYUrMOz
XWuzyaitFp5mmM6+xZgicyppS/VTg9pTXgEc2X4TdwqrUHEXDf1/QjydAalSW6Ki
AQ58Rbi3DBjZhrCdsV8Z8wCaMnfhxFic/muoSeqkuUB2ZXHjPClgOfo2712rmYPH
TIJ7BvAspuIy4XRjyFwGfCwq05EBjiLfreUtOSnrRLgh3HjoDWtNgt/635XpJvzC
WAHUY6xMtLNJqC/NEwRra6zv6pQ3L077B0XRIUMbzNNn6/HR9HfwZG67fdAy4oTF
3pMZ4oj7AgMBAAGjgbYwgbMwDAYDVR0TAQH/BAIwADAdBgNVHQ4EFgQUpM6Aeohe
G+NXhhaxiBX/unoVaLswHwYDVR0jBBgwFoAUHQDICbY5Lx2/Byy2iOTBRYKUL7cw
HQYDVR0lBBYwFAYIKwYBBQUHAwEGCCsGAQUFBwMCMEQGA1UdEQQ9MDuCD3d3dy5l
eGFtcGxlLm9yZ4IQbWFpbC5leGFtcGxlLm9yZ4IQbWFpbC5leGFtcGxlLmNvbYcE
fwAAATANBgkqhkiG9w0BAQsFAAOCAQEAeM+2gRF/ajHpa20b3ilQlEmFNxgu6OQM
mISTrj1RcGeg43xwP8ZRFHB42HCzqJ++GdBJw35+E/RVo48W9LeVnQYe59Dy9y8v
trPapH1EoZoUK0BfUtO4vaOfwt2k5xMxb9X0pUfQg5iG2YLgauE4+kemPjZ1H2x3
t9SVQQEieAFM0V/Zd7D6foEsYfFk+zLqAbIpU4bNZpkPJldk/3X8QciKAXn8dUuw
SwUYt4fr2jLZpffnPAM7LuTGjEjcVo5bY9IXTU5w/wlyLi+ZhwUuREmI9YzYRTN6
oRxd8XOf+GtstVwzZZZayXvMWgdZhVCIzXfBoL4Ol5DRhvJ4X/cLZg==
-----END CERTIFICATE-----
